target datalayout = "e-m:e-p270:32:32-p271:32:32-p272:64:64-i64:64-i128:128-f80:128-n8:16:32:64-S128"
target triple = "x86_64-pc-linux-gnu"

%"class.base::Pickle" = type { ptr, ptr, i64, i64, i64 }
%"struct.base::Pickle::Header" = type { i32 }

; Function Attrs: mustprogress uwtable
define noundef nonnull align 8 dereferenceable(40) ptr @_ZN4base6PickleaSERKS0_(ptr noundef nonnull align 8 dereferenceable(40) %0, ptr noundef nonnull align 8 dereferenceable(40) %1) #0 align 2 {
  %3 = alloca ptr, align 8
  %4 = alloca ptr, align 8
  %5 = alloca ptr, align 8
  store ptr %0, ptr %4, align 8, !tbaa !21
  store ptr %1, ptr %5, align 8, !tbaa !21
  %6 = load ptr, ptr %4, align 8
  %7 = load ptr, ptr %5, align 8, !tbaa !21
  %8 = icmp eq ptr %6, %7
  br i1 %8, label %9, label %10

9:                                                ; preds = %2
  store ptr %6, ptr %3, align 8
  br label %58

10:                                               ; preds = %2
  %11 = getelementptr inbounds nuw %"class.base::Pickle", ptr %6, i32 0, i32 3
  %12 = load i64, ptr %11, align 8, !tbaa !79
  %13 = icmp eq i64 %12, -1
  br i1 %13, label %14, label %17

14:                                               ; preds = %10
  %15 = getelementptr inbounds nuw %"class.base::Pickle", ptr %6, i32 0, i32 1
  store ptr null, ptr %15, align 8, !tbaa !32
  %16 = getelementptr inbounds nuw %"class.base::Pickle", ptr %6, i32 0, i32 3
  store i64 0, ptr %16, align 8, !tbaa !79
  br label %17

17:                                               ; preds = %14, %10
  %18 = getelementptr inbounds nuw %"class.base::Pickle", ptr %6, i32 0, i32 2
  %19 = load i64, ptr %18, align 8, !tbaa !35
  %20 = load ptr, ptr %5, align 8, !tbaa !21
  %21 = getelementptr inbounds nuw %"class.base::Pickle", ptr %20, i32 0, i32 2
  %22 = load i64, ptr %21, align 8, !tbaa !35
  %23 = icmp ne i64 %19, %22
  br i1 %23, label %24, label %32

24:                                               ; preds = %17
  %25 = getelementptr inbounds nuw %"class.base::Pickle", ptr %6, i32 0, i32 1
  %26 = load ptr, ptr %25, align 8, !tbaa !32
  call void @free(ptr noundef %26) #11
  %27 = getelementptr inbounds nuw %"class.base::Pickle", ptr %6, i32 0, i32 1
  store ptr null, ptr %27, align 8, !tbaa !32
  %28 = load ptr, ptr %5, align 8, !tbaa !21
  %29 = getelementptr inbounds nuw %"class.base::Pickle", ptr %28, i32 0, i32 2
  %30 = load i64, ptr %29, align 8, !tbaa !35
  %31 = getelementptr inbounds nuw %"class.base::Pickle", ptr %6, i32 0, i32 2
  store i64 %30, ptr %31, align 8, !tbaa !35
  br label %32

32:                                               ; preds = %24, %17
  %33 = load ptr, ptr %5, align 8, !tbaa !21
  %34 = getelementptr inbounds nuw %"class.base::Pickle", ptr %33, i32 0, i32 1
  %35 = load ptr, ptr %34, align 8, !tbaa !32
  %36 = getelementptr inbounds nuw %"struct.base::Pickle::Header", ptr %35, i32 0, i32 0
  %37 = load i32, ptr %36, align 4, !tbaa !36
  %38 = zext i32 %37 to i64
  call void @_ZN4base6Pickle6ResizeEm(ptr noundef nonnull align 8 dereferenceable(40) %6, i64 noundef %38)
  %39 = getelementptr inbounds nuw %"class.base::Pickle", ptr %6, i32 0, i32 1
  %40 = load ptr, ptr %39, align 8, !tbaa !32
  %41 = load ptr, ptr %5, align 8, !tbaa !21
  %42 = getelementptr inbounds nuw %"class.base::Pickle", ptr %41, i32 0, i32 1
  %43 = load ptr, ptr %42, align 8, !tbaa !32
  %44 = load ptr, ptr %5, align 8, !tbaa !21
  %45 = getelementptr inbounds nuw %"class.base::Pickle", ptr %44, i32 0, i32 2
  %46 = load i64, ptr %45, align 8, !tbaa !35
  %47 = load ptr, ptr %5, align 8, !tbaa !21
  %48 = getelementptr inbounds nuw %"class.base::Pickle", ptr %47, i32 0, i32 1
  %49 = load ptr, ptr %48, align 8, !tbaa !32
  %50 = getelementptr inbounds nuw %"struct.base::Pickle::Header", ptr %49, i32 0, i32 0
  %51 = load i32, ptr %50, align 4, !tbaa !36
  %52 = zext i32 %51 to i64
  %53 = add i64 %46, %52
  call void @llvm.memcpy.p0.p0.i64(ptr align 4 %40, ptr align 4 %43, i64 %53, i1 false)
  %54 = load ptr, ptr %5, align 8, !tbaa !21
  %55 = getelementptr inbounds nuw %"class.base::Pickle", ptr %54, i32 0, i32 4
  %56 = load i64, ptr %55, align 8, !tbaa !80
  %57 = getelementptr inbounds nuw %"class.base::Pickle", ptr %6, i32 0, i32 4
  store i64 %56, ptr %57, align 8, !tbaa !80
  store ptr %6, ptr %3, align 8
  br label %58

58:                                               ; preds = %32, %9
  %59 = load ptr, ptr %3, align 8
  ret ptr %59
}