; Function Attrs: mustprogress uwtable
define noundef nonnull align 8 dereferenceable(40) ptr @_ZN4base6PickleaSERKS0_(ptr noundef nonnull returned align 8 dereferenceable(40) %0, ptr noundef nonnull readonly align 8 captures(address) dereferenceable(40) %1) local_unnamed_addr #0 align 2 {
  %3 = icmp eq ptr %0, %1
  br i1 %3, label %34, label %4

4:                                                ; preds = %2
  %5 = getelementptr inbounds nuw i8, ptr %0, i64 24
  %6 = load i64, ptr %5, align 8, !tbaa !12
  %7 = icmp eq i64 %6, -1
  br i1 %7, label %8, label %10

8:                                                ; preds = %4
  %9 = getelementptr inbounds nuw i8, ptr %0, i64 8
  store ptr null, ptr %9, align 8, !tbaa !13
  store i64 0, ptr %5, align 8, !tbaa !12
  br label %10

10:                                               ; preds = %8, %4
  %11 = getelementptr inbounds nuw i8, ptr %0, i64 16
  %12 = load i64, ptr %11, align 8, !tbaa !14
  %13 = getelementptr inbounds nuw i8, ptr %1, i64 16
  %14 = load i64, ptr %13, align 8, !tbaa !14
  %.not = icmp eq i64 %12, %14
  br i1 %.not, label %19, label %15

15:                                               ; preds = %10
  %16 = getelementptr inbounds nuw i8, ptr %0, i64 8
  %17 = load ptr, ptr %16, align 8, !tbaa !13
  tail call void @free(ptr noundef %17) #17
  store ptr null, ptr %16, align 8, !tbaa !13
  %18 = load i64, ptr %13, align 8, !tbaa !14
  store i64 %18, ptr %11, align 8, !tbaa !14
  br label %19

19:                                               ; preds = %15, %10
  %20 = getelementptr inbounds nuw i8, ptr %1, i64 8
  %21 = load ptr, ptr %20, align 8, !tbaa !13
  %22 = load i32, ptr %21, align 4, !tbaa !15
  %23 = zext i32 %22 to i64
  tail call void @_ZN4base6Pickle6ResizeEm(ptr noundef nonnull align 8 dereferenceable(40) %0, i64 noundef %23)
  %24 = getelementptr inbounds nuw i8, ptr %0, i64 8
  %25 = load ptr, ptr %24, align 8, !tbaa !13
  %26 = load ptr, ptr %20, align 8, !tbaa !13
  %27 = load i64, ptr %13, align 8, !tbaa !14
  %28 = load i32, ptr %26, align 4, !tbaa !15
  %29 = zext i32 %28 to i64
  %30 = add i64 %27, %29
  tail call void @llvm.memcpy.p0.p0.i64(ptr align 4 %25, ptr nonnull align 4 %26, i64 %30, i1 false)
  %31 = getelementptr inbounds nuw i8, ptr %1, i64 32
  %32 = load i64, ptr %31, align 8, !tbaa !8
  %33 = getelementptr inbounds nuw i8, ptr %0, i64 32
  store i64 %32, ptr %33, align 8, !tbaa !8
  br label %34

34:                                               ; preds = %2, %19
  ret ptr %0
}